target datalayout = "e-m:e-p270:32:32-p271:32:32-p272:64:64-i64:64-i128:128-f80:128-n8:16:32:64-S128"
target triple = "x86_64-pc-linux-gnu"

; Function Attrs: nounwind uwtable
define dso_local i32 @zend_binary_strcmp(ptr noundef %0, i64 noundef %1, ptr noundef %2, i64 noundef %3) #0 {
  %5 = alloca i32, align 4
  %6 = alloca ptr, align 8
  %7 = alloca i64, align 8
  %8 = alloca ptr, align 8
  %9 = alloca i64, align 8
  %10 = alloca i32, align 4
  %11 = alloca i32, align 4
  store ptr %0, ptr %6, align 8, !tbaa !4
  store i64 %1, ptr %7, align 8, !tbaa !9
  store ptr %2, ptr %8, align 8, !tbaa !4
  store i64 %3, ptr %9, align 8, !tbaa !9
  call void @llvm.lifetime.start.p0(i64 4, ptr %10) #20
  %12 = load ptr, ptr %6, align 8, !tbaa !4
  %13 = load ptr, ptr %8, align 8, !tbaa !4
  %14 = icmp eq ptr %12, %13
  br i1 %14, label %15, label %16

15:                                               ; preds = %4
  store i32 0, ptr %5, align 4
  store i32 1, ptr %11, align 4
  br label %45

16:                                               ; preds = %4
  %17 = load ptr, ptr %6, align 8, !tbaa !4
  %18 = load ptr, ptr %8, align 8, !tbaa !4
  %19 = load i64, ptr %7, align 8, !tbaa !9
  %20 = load i64, ptr %9, align 8, !tbaa !9
  %21 = icmp ult i64 %19, %20
  br i1 %21, label %22, label %24

22:                                               ; preds = %16
  %23 = load i64, ptr %7, align 8, !tbaa !9
  br label %26

24:                                               ; preds = %16
  %25 = load i64, ptr %9, align 8, !tbaa !9
  br label %26

26:                                               ; preds = %24, %22
  %27 = phi i64 [ %23, %22 ], [ %25, %24 ]
  %28 = call i32 @memcmp(ptr noundef %17, ptr noundef %18, i64 noundef %27) #19
  store i32 %28, ptr %10, align 4, !tbaa !44
  %29 = load i32, ptr %10, align 4, !tbaa !44
  %30 = icmp ne i32 %29, 0
  br i1 %30, label %43, label %31

31:                                               ; preds = %26
  %32 = load i64, ptr %7, align 8, !tbaa !9
  %33 = load i64, ptr %9, align 8, !tbaa !9
  %34 = icmp eq i64 %32, %33
  br i1 %34, label %35, label %36

35:                                               ; preds = %31
  br label %41

36:                                               ; preds = %31
  %37 = load i64, ptr %7, align 8, !tbaa !9
  %38 = load i64, ptr %9, align 8, !tbaa !9
  %39 = icmp ult i64 %37, %38
  %40 = select i1 %39, i32 -1, i32 1
  br label %41

41:                                               ; preds = %36, %35
  %42 = phi i32 [ 0, %35 ], [ %40, %36 ]
  store i32 %42, ptr %5, align 4
  store i32 1, ptr %11, align 4
  br label %45

43:                                               ; preds = %26
  %44 = load i32, ptr %10, align 4, !tbaa !44
  store i32 %44, ptr %5, align 4
  store i32 1, ptr %11, align 4
  br label %45

45:                                               ; preds = %43, %41, %15
  call void @llvm.lifetime.end.p0(i64 4, ptr %10) #20
  %46 = load i32, ptr %5, align 4
  ret i32 %46
}