; Function Attrs: mustprogress nofree nounwind willreturn memory(argmem: read) uwtable
define dso_local i32 @zend_binary_strcmp(ptr noundef readonly captures(address) %0, i64 noundef %1, ptr noundef readonly captures(address) %2, i64 noundef %3) local_unnamed_addr #10 {
  %5 = icmp eq ptr %0, %2
  br i1 %5, label %11, label %6

6:                                                ; preds = %4
  %7 = tail call i64 @llvm.umin.i64(i64 %1, i64 %3)
  %8 = tail call i32 @memcmp(ptr noundef %0, ptr noundef %2, i64 noundef %7) #29
  %.not = icmp eq i32 %8, 0
  br i1 %.not, label %9, label %11

9:                                                ; preds = %6
  %10 = tail call i32 @llvm.ucmp.i32.i64(i64 %1, i64 %3)
  br label %11

11:                                               ; preds = %6, %4, %9
  %.0 = phi i32 [ %10, %9 ], [ 0, %4 ], [ %8, %6 ]
  ret i32 %.0
}